; Function Attrs: mustprogress uwtable
define internal fastcc void @_ZN32pxrInternal_v0_24__pxrReserved__L25_ReportInvalidSchemaErrorEPKcRKNS_7TfTokenEPNSt7__cxx1112basic_stringIcSt11char_traitsIcESaIcEEE(ptr noundef %0, ptr %.0.val, ptr noundef %1) unnamed_addr #0 personality ptr @__gxx_personality_v0 {
  %3 = alloca %"class.std::__cxx11::basic_string", align 8
  %4 = alloca %"class.pxrInternal_v0_24__pxrReserved__::TfCallContext", align 8
  %5 = ptrtoint ptr %.0.val to i64
  %6 = and i64 %5, -8
  %.not.i = icmp eq i64 %6, 0
  br i1 %.not.i, label %_ZNK32pxrInternal_v0_24__pxrReserved__7TfToken7GetTextEv.exit, label %7

7:                                                ; preds = %2
  %8 = inttoptr i64 %6 to ptr
  %9 = getelementptr inbounds nuw i8, ptr %8, i64 16
  %10 = tail call noundef ptr @_ZNKSt7__cxx1112basic_stringIcSt11char_traitsIcESaIcEE5c_strEv(ptr noundef nonnull align 8 dereferenceable(32) %9) #18
  br label %_ZNK32pxrInternal_v0_24__pxrReserved__7TfToken7GetTextEv.exit

_ZNK32pxrInternal_v0_24__pxrReserved__7TfToken7GetTextEv.exit: ; preds = %2, %7
  %11 = phi ptr [ %10, %7 ], [ @.str.25, %2 ]
  call void (ptr, ptr, ...) @_ZN32pxrInternal_v0_24__pxrReserved__14TfStringPrintfB5cxx11EPKcz(ptr dead_on_unwind nonnull writable sret(%"class.std::__cxx11::basic_string") align 8 %3, ptr noundef nonnull @.str.27, ptr noundef %11)
  store ptr @.str, ptr %4, align 8
  %12 = getelementptr inbounds nuw i8, ptr %4, i64 8
  store ptr @__func__._ZN32pxrInternal_v0_24__pxrReserved__L25_ReportInvalidSchemaErrorEPKcRKNS_6TfTypeEPNSt7__cxx1112basic_stringIcSt11char_traitsIcESaIcEEE, ptr %12, align 8
  %13 = getelementptr inbounds nuw i8, ptr %4, i64 16
  store i64 558, ptr %13, align 8
  %14 = getelementptr inbounds nuw i8, ptr %4, i64 24
  store ptr @__PRETTY_FUNCTION__._ZN32pxrInternal_v0_24__pxrReserved__L25_ReportInvalidSchemaErrorEPKcRKNS_7TfTokenEPNSt7__cxx1112basic_stringIcSt11char_traitsIcESaIcEEE, ptr %14, align 8
  %15 = getelementptr inbounds nuw i8, ptr %4, i64 32
  store i8 0, ptr %15, align 8
  %16 = call noundef ptr @_ZNKSt7__cxx1112basic_stringIcSt11char_traitsIcESaIcEE5c_strEv(ptr noundef nonnull align 8 dereferenceable(32) %3) #18
  invoke void (ptr, i32, ptr, ...) @_ZN32pxrInternal_v0_24__pxrReserved__18Tf_PostErrorHelperERKNS_13TfCallContextENS_16TfDiagnosticTypeEPKcz(ptr noundef nonnull align 8 dereferenceable(33) %4, i32 noundef 1, ptr noundef nonnull @.str.21, ptr noundef %0, ptr noundef %16)
          to label %17 unwind label %20

17:                                               ; preds = %_ZNK32pxrInternal_v0_24__pxrReserved__7TfToken7GetTextEv.exit
  %.not = icmp eq ptr %1, null
  br i1 %.not, label %22, label %18

18:                                               ; preds = %17
  %19 = call noundef nonnull align 8 dereferenceable(32) ptr @_ZNSt7__cxx1112basic_stringIcSt11char_traitsIcESaIcEEaSEOS4_(ptr noundef nonnull align 8 dereferenceable(32) %1, ptr noundef nonnull align 8 dereferenceable(32) %3) #18
  br label %22

20:                                               ; preds = %_ZNK32pxrInternal_v0_24__pxrReserved__7TfToken7GetTextEv.exit
  %21 = landingpad { ptr, i32 }
          cleanup
  call void @_ZNSt7__cxx1112basic_stringIcSt11char_traitsIcESaIcEED1Ev(ptr noundef nonnull align 8 dereferenceable(32) %3) #18
  resume { ptr, i32 } %21

22:                                               ; preds = %18, %17
  call void @_ZNSt7__cxx1112basic_stringIcSt11char_traitsIcESaIcEED1Ev(ptr noundef nonnull align 8 dereferenceable(32) %3) #18
  ret void
}